target datalayout = "e-m:e-p270:32:32-p271:32:32-p272:64:64-i64:64-i128:128-f80:128-n8:16:32:64-S128"
target triple = "x86_64-pc-linux-gnu"

%struct.Query = type { i32, i32, i32, i64, i8, ptr, i32, i8, i8, i8, i8, i8, i8, i8, i8, i8, i8, i8, ptr, ptr, ptr, ptr, ptr, i32, ptr, ptr, i32, ptr, ptr, ptr, ptr, ptr, i8, ptr, ptr, ptr, ptr, ptr, ptr, ptr, i32, ptr, ptr, ptr, ptr, i32, i32 }
%struct.PlannerInfo = type { i32, ptr, ptr, i32, ptr, ptr, ptr, ptr, i32, ptr, ptr, ptr, ptr, ptr, ptr, ptr, ptr, i32, ptr, ptr, ptr, ptr, ptr, i8, ptr, ptr, ptr, ptr, ptr, i32, ptr, ptr, ptr, ptr, ptr, ptr, ptr, i32, ptr, ptr, ptr, i32, ptr, ptr, ptr, ptr, ptr, ptr, [8 x ptr], [8 x ptr], ptr, ptr, ptr, ptr, ptr, ptr, ptr, double, double, double, i32, i8, i8, i8, i8, i8, i8, i8, i32, ptr, ptr, i32, i8, i8, i32, ptr, ptr, ptr, ptr, ptr, ptr, i8, ptr }
%struct.List = type { i32, i32, i32, ptr, [0 x %union.ListCell] }
%union.ListCell = type { ptr }
%struct.Node = type { i32 }
%struct.ForEachState = type { ptr, i32 }
%struct.RangeTblEntry = type { i32, ptr, ptr, i32, i32, i8, i8, i32, i32, ptr, ptr, i8, i32, i32, ptr, ptr, ptr, ptr, ptr, i8, ptr, ptr, ptr, i32, i8, ptr, ptr, ptr, ptr, double, ptr, i8, i8, ptr }
%struct.RelOptInfo = type { i32, i32, ptr, double, i8, i8, i8, ptr, ptr, ptr, ptr, ptr, ptr, ptr, ptr, ptr, ptr, i32, i32, i32, i16, i16, ptr, ptr, ptr, ptr, ptr, ptr, ptr, ptr, i32, double, double, ptr, ptr, ptr, i32, i32, i32, i32, i8, ptr, ptr, ptr, ptr, ptr, %struct.QualCost, i32, ptr, i8, i8, ptr, ptr, ptr, ptr, i32, ptr, i8, ptr, ptr, ptr, ptr, ptr, ptr }
%struct.QualCost = type { double, double }
%struct.Path = type { i32, i32, ptr, ptr, ptr, i8, i8, i32, double, i32, double, double, ptr }
%struct.PathTarget = type { i32, ptr, ptr, %struct.QualCost, i32, i32 }
%struct.IndexOptInfo = type { i32, i32, i32, ptr, i32, double, i32, i32, i32, ptr, ptr, ptr, ptr, ptr, ptr, ptr, ptr, ptr, i32, ptr, ptr, ptr, ptr, i8, i8, i8, i8, i8, i8, i8, i8, i8, i8, i8, i8, i8, ptr }
%struct.IndexPath = type { %struct.Path, ptr, ptr, ptr, ptr, i32, double, double }

@CurrentMemoryContext = external global ptr, align 8
@enable_indexscan = external global i8, align 1
@maintenance_work_mem = external global i32, align 4

; Function Attrs: inlinehint nounwind uwtable
define internal ptr @newNode(i64 noundef %0, i32 noundef %1) #2 {
  %3 = alloca i64, align 8
  %4 = alloca i32, align 4
  %5 = alloca ptr, align 8
  store i64 %0, ptr %3, align 8
  store i32 %1, ptr %4, align 4
  call void @llvm.lifetime.start.p0(i64 8, ptr %5) #8
  %6 = load i64, ptr %3, align 8
  %7 = call ptr @palloc0(i64 noundef %6)
  store ptr %7, ptr %5, align 8
  %8 = load i32, ptr %4, align 4
  %9 = load ptr, ptr %5, align 8
  %10 = getelementptr inbounds nuw %struct.Node, ptr %9, i32 0, i32 0
  store i32 %8, ptr %10, align 4
  %11 = load ptr, ptr %5, align 8
  call void @llvm.lifetime.end.p0(i64 8, ptr %5) #8
  ret ptr %11
}

; Function Attrs: nounwind uwtable
define dso_local zeroext i1 @plan_cluster_use_sort(i32 noundef %0, i32 noundef %1) #0 {
  %3 = alloca i1, align 1
  %4 = alloca i32, align 4
  %5 = alloca i32, align 4
  %6 = alloca ptr, align 8
  %7 = alloca ptr, align 8
  %8 = alloca ptr, align 8
  %9 = alloca ptr, align 8
  %10 = alloca ptr, align 8
  %11 = alloca ptr, align 8
  %12 = alloca %struct.QualCost, align 8
  %13 = alloca double, align 8
  %14 = alloca ptr, align 8
  %15 = alloca %struct.Path, align 8
  %16 = alloca ptr, align 8
  %17 = alloca ptr, align 8
  %18 = alloca i32, align 4
  %19 = alloca %union.ListCell, align 8
  %20 = alloca %union.ListCell, align 8
  %21 = alloca %struct.ForEachState, align 8
  store i32 %0, ptr %4, align 4
  store i32 %1, ptr %5, align 4
  call void @llvm.lifetime.start.p0(i64 8, ptr %6) #8
  call void @llvm.lifetime.start.p0(i64 8, ptr %7) #8
  call void @llvm.lifetime.start.p0(i64 8, ptr %8) #8
  call void @llvm.lifetime.start.p0(i64 8, ptr %9) #8
  call void @llvm.lifetime.start.p0(i64 8, ptr %10) #8
  call void @llvm.lifetime.start.p0(i64 8, ptr %11) #8
  call void @llvm.lifetime.start.p0(i64 16, ptr %12) #8
  call void @llvm.lifetime.start.p0(i64 8, ptr %13) #8
  call void @llvm.lifetime.start.p0(i64 8, ptr %14) #8
  call void @llvm.lifetime.start.p0(i64 80, ptr %15) #8
  call void @llvm.lifetime.start.p0(i64 8, ptr %16) #8
  call void @llvm.lifetime.start.p0(i64 8, ptr %17) #8
  %22 = load i8, ptr @enable_indexscan, align 1, !range !4, !noundef !5
  %23 = trunc i8 %22 to i1
  br i1 %23, label %25, label %24

24:                                               ; preds = %2
  store i1 true, ptr %3, align 1
  store i32 1, ptr %18, align 4
  br label %188

25:                                               ; preds = %2
  %26 = call ptr @newNode(i64 noundef 280, i32 noundef 67)
  store ptr %26, ptr %7, align 8
  %27 = load ptr, ptr %7, align 8
  %28 = getelementptr inbounds nuw %struct.Query, ptr %27, i32 0, i32 1
  store i32 1, ptr %28, align 4
  %29 = call ptr @newNode(i64 noundef 168, i32 noundef 265)
  store ptr %29, ptr %8, align 8
  %30 = call ptr @newNode(i64 noundef 704, i32 noundef 266)
  store ptr %30, ptr %6, align 8
  %31 = load ptr, ptr %7, align 8
  %32 = load ptr, ptr %6, align 8
  %33 = getelementptr inbounds nuw %struct.PlannerInfo, ptr %32, i32 0, i32 1
  store ptr %31, ptr %33, align 8
  %34 = load ptr, ptr %8, align 8
  %35 = load ptr, ptr %6, align 8
  %36 = getelementptr inbounds nuw %struct.PlannerInfo, ptr %35, i32 0, i32 2
  store ptr %34, ptr %36, align 8
  %37 = load ptr, ptr %6, align 8
  %38 = getelementptr inbounds nuw %struct.PlannerInfo, ptr %37, i32 0, i32 3
  store i32 1, ptr %38, align 8
  %39 = load ptr, ptr @CurrentMemoryContext, align 8
  %40 = load ptr, ptr %6, align 8
  %41 = getelementptr inbounds nuw %struct.PlannerInfo, ptr %40, i32 0, i32 56
  store ptr %39, ptr %41, align 8
  %42 = load ptr, ptr %6, align 8
  %43 = getelementptr inbounds nuw %struct.PlannerInfo, ptr %42, i32 0, i32 74
  store i32 -1, ptr %43, align 8
  %44 = call ptr @newNode(i64 noundef 16, i32 noundef 271)
  store ptr %44, ptr %19, align 8
  %45 = getelementptr inbounds nuw %union.ListCell, ptr %19, i32 0, i32 0
  %46 = load ptr, ptr %45, align 8
  %47 = call ptr @list_make1_impl(i32 noundef 1, ptr %46)
  %48 = load ptr, ptr %6, align 8
  %49 = getelementptr inbounds nuw %struct.PlannerInfo, ptr %48, i32 0, i32 21
  store ptr %47, ptr %49, align 8
  %50 = call ptr @newNode(i64 noundef 224, i32 noundef 101)
  store ptr %50, ptr %9, align 8
  %51 = load ptr, ptr %9, align 8
  %52 = getelementptr inbounds nuw %struct.RangeTblEntry, ptr %51, i32 0, i32 3
  store i32 0, ptr %52, align 8
  %53 = load i32, ptr %4, align 4
  %54 = load ptr, ptr %9, align 8
  %55 = getelementptr inbounds nuw %struct.RangeTblEntry, ptr %54, i32 0, i32 4
  store i32 %53, ptr %55, align 4
  %56 = load ptr, ptr %9, align 8
  %57 = getelementptr inbounds nuw %struct.RangeTblEntry, ptr %56, i32 0, i32 6
  store i8 114, ptr %57, align 1
  %58 = load ptr, ptr %9, align 8
  %59 = getelementptr inbounds nuw %struct.RangeTblEntry, ptr %58, i32 0, i32 7
  store i32 1, ptr %59, align 4
  %60 = load ptr, ptr %9, align 8
  %61 = getelementptr inbounds nuw %struct.RangeTblEntry, ptr %60, i32 0, i32 31
  store i8 0, ptr %61, align 8
  %62 = load ptr, ptr %9, align 8
  %63 = getelementptr inbounds nuw %struct.RangeTblEntry, ptr %62, i32 0, i32 5
  store i8 0, ptr %63, align 8
  %64 = load ptr, ptr %9, align 8
  %65 = getelementptr inbounds nuw %struct.RangeTblEntry, ptr %64, i32 0, i32 32
  store i8 1, ptr %65, align 1
  %66 = load ptr, ptr %9, align 8
  store ptr %66, ptr %20, align 8
  %67 = getelementptr inbounds nuw %union.ListCell, ptr %20, i32 0, i32 0
  %68 = load ptr, ptr %67, align 8
  %69 = call ptr @list_make1_impl(i32 noundef 1, ptr %68)
  %70 = load ptr, ptr %7, align 8
  %71 = getelementptr inbounds nuw %struct.Query, ptr %70, i32 0, i32 19
  store ptr %69, ptr %71, align 8
  %72 = load ptr, ptr %7, align 8
  %73 = getelementptr inbounds nuw %struct.Query, ptr %72, i32 0, i32 20
  %74 = load ptr, ptr %9, align 8
  %75 = call ptr @addRTEPermissionInfo(ptr noundef %73, ptr noundef %74)
  %76 = load ptr, ptr %6, align 8
  call void @setup_simple_rel_arrays(ptr noundef %76)
  %77 = load ptr, ptr %6, align 8
  %78 = call ptr @build_simple_rel(ptr noundef %77, i32 noundef 1, ptr noundef null)
  store ptr %78, ptr %10, align 8
  store ptr null, ptr %11, align 8
  call void @llvm.lifetime.start.p0(i64 16, ptr %21) #8
  %79 = getelementptr inbounds nuw %struct.ForEachState, ptr %21, i32 0, i32 0
  %80 = load ptr, ptr %10, align 8
  %81 = getelementptr inbounds nuw %struct.RelOptInfo, ptr %80, i32 0, i32 28
  %82 = load ptr, ptr %81, align 8
  store ptr %82, ptr %79, align 8
  %83 = getelementptr inbounds nuw %struct.ForEachState, ptr %21, i32 0, i32 1
  store i32 0, ptr %83, align 8
  %84 = getelementptr i8, ptr %21, i64 12
  call void @llvm.memset.p0.i64(ptr align 4 %84, i8 0, i64 4, i1 false)
  br label %85

85:                                               ; preds = %121, %25
  %86 = getelementptr inbounds nuw %struct.ForEachState, ptr %21, i32 0, i32 0
  %87 = load ptr, ptr %86, align 8
  %88 = icmp ne ptr %87, null
  br i1 %88, label %89, label %106

89:                                               ; preds = %85
  %90 = getelementptr inbounds nuw %struct.ForEachState, ptr %21, i32 0, i32 1
  %91 = load i32, ptr %90, align 8
  %92 = getelementptr inbounds nuw %struct.ForEachState, ptr %21, i32 0, i32 0
  %93 = load ptr, ptr %92, align 8
  %94 = getelementptr inbounds nuw %struct.List, ptr %93, i32 0, i32 1
  %95 = load i32, ptr %94, align 4
  %96 = icmp slt i32 %91, %95
  br i1 %96, label %97, label %106

97:                                               ; preds = %89
  %98 = getelementptr inbounds nuw %struct.ForEachState, ptr %21, i32 0, i32 0
  %99 = load ptr, ptr %98, align 8
  %100 = getelementptr inbounds nuw %struct.List, ptr %99, i32 0, i32 3
  %101 = load ptr, ptr %100, align 8
  %102 = getelementptr inbounds nuw %struct.ForEachState, ptr %21, i32 0, i32 1
  %103 = load i32, ptr %102, align 8
  %104 = sext i32 %103 to i64
  %105 = getelementptr inbounds %union.ListCell, ptr %101, i64 %104
  store ptr %105, ptr %17, align 8
  br label %107

106:                                              ; preds = %89, %85
  store ptr null, ptr %17, align 8
  br label %107

107:                                              ; preds = %106, %97
  %108 = phi i32 [ 1, %97 ], [ 0, %106 ]
  %109 = icmp ne i32 %108, 0
  br i1 %109, label %111, label %110

110:                                              ; preds = %107
  store i32 2, ptr %18, align 4
  br label %125

111:                                              ; preds = %107
  %112 = load ptr, ptr %17, align 8
  %113 = load ptr, ptr %112, align 8
  store ptr %113, ptr %11, align 8
  %114 = load ptr, ptr %11, align 8
  %115 = getelementptr inbounds nuw %struct.IndexOptInfo, ptr %114, i32 0, i32 1
  %116 = load i32, ptr %115, align 4
  %117 = load i32, ptr %5, align 4
  %118 = icmp eq i32 %116, %117
  br i1 %118, label %119, label %120

119:                                              ; preds = %111
  store i32 2, ptr %18, align 4
  br label %125

120:                                              ; preds = %111
  br label %121

121:                                              ; preds = %120
  %122 = getelementptr inbounds nuw %struct.ForEachState, ptr %21, i32 0, i32 1
  %123 = load i32, ptr %122, align 8
  %124 = add i32 %123, 1
  store i32 %124, ptr %122, align 8
  br label %85, !llvm.loop !27

125:                                              ; preds = %119, %110
  call void @llvm.lifetime.end.p0(i64 16, ptr %21) #8
  br label %126

126:                                              ; preds = %125
  %127 = load ptr, ptr %17, align 8
  %128 = icmp eq ptr %127, null
  br i1 %128, label %129, label %130

129:                                              ; preds = %126
  store i1 true, ptr %3, align 1
  store i32 1, ptr %18, align 4
  br label %188

130:                                              ; preds = %126
  %131 = load ptr, ptr %10, align 8
  %132 = getelementptr inbounds nuw %struct.RelOptInfo, ptr %131, i32 0, i32 31
  %133 = load double, ptr %132, align 8
  %134 = load ptr, ptr %10, align 8
  %135 = getelementptr inbounds nuw %struct.RelOptInfo, ptr %134, i32 0, i32 3
  store double %133, ptr %135, align 8
  %136 = load i32, ptr %4, align 4
  %137 = call i32 @get_relation_data_width(i32 noundef %136, ptr noundef null)
  %138 = load ptr, ptr %10, align 8
  %139 = getelementptr inbounds nuw %struct.RelOptInfo, ptr %138, i32 0, i32 7
  %140 = load ptr, ptr %139, align 8
  %141 = getelementptr inbounds nuw %struct.PathTarget, ptr %140, i32 0, i32 4
  store i32 %137, ptr %141, align 8
  %142 = load ptr, ptr %10, align 8
  %143 = getelementptr inbounds nuw %struct.RelOptInfo, ptr %142, i32 0, i32 30
  %144 = load i32, ptr %143, align 8
  %145 = uitofp i32 %144 to double
  %146 = load ptr, ptr %6, align 8
  %147 = getelementptr inbounds nuw %struct.PlannerInfo, ptr %146, i32 0, i32 57
  store double %145, ptr %147, align 8
  %148 = load ptr, ptr %11, align 8
  %149 = getelementptr inbounds nuw %struct.IndexOptInfo, ptr %148, i32 0, i32 19
  %150 = load ptr, ptr %149, align 8
  %151 = load ptr, ptr %6, align 8
  call void @cost_qual_eval(ptr noundef %12, ptr noundef %150, ptr noundef %151)
  %152 = getelementptr inbounds nuw %struct.QualCost, ptr %12, i32 0, i32 0
  %153 = load double, ptr %152, align 8
  %154 = getelementptr inbounds nuw %struct.QualCost, ptr %12, i32 0, i32 1
  %155 = load double, ptr %154, align 8
  %156 = fadd double %153, %155
  %157 = fmul double 2.000000e+00, %156
  store double %157, ptr %13, align 8
  %158 = load ptr, ptr %6, align 8
  %159 = load ptr, ptr %10, align 8
  %160 = call ptr @create_seqscan_path(ptr noundef %158, ptr noundef %159, ptr noundef null, i32 noundef 0)
  store ptr %160, ptr %14, align 8
  %161 = load ptr, ptr %6, align 8
  %162 = load ptr, ptr %14, align 8
  %163 = getelementptr inbounds nuw %struct.Path, ptr %162, i32 0, i32 9
  %164 = load i32, ptr %163, align 8
  %165 = load ptr, ptr %14, align 8
  %166 = getelementptr inbounds nuw %struct.Path, ptr %165, i32 0, i32 11
  %167 = load double, ptr %166, align 8
  %168 = load ptr, ptr %10, align 8
  %169 = getelementptr inbounds nuw %struct.RelOptInfo, ptr %168, i32 0, i32 31
  %170 = load double, ptr %169, align 8
  %171 = load ptr, ptr %10, align 8
  %172 = getelementptr inbounds nuw %struct.RelOptInfo, ptr %171, i32 0, i32 7
  %173 = load ptr, ptr %172, align 8
  %174 = getelementptr inbounds nuw %struct.PathTarget, ptr %173, i32 0, i32 4
  %175 = load i32, ptr %174, align 8
  %176 = load double, ptr %13, align 8
  %177 = load i32, ptr @maintenance_work_mem, align 4
  call void @cost_sort(ptr noundef %15, ptr noundef %161, ptr noundef null, i32 noundef %164, double noundef %167, double noundef %170, i32 noundef %175, double noundef %176, i32 noundef %177, double noundef -1.000000e+00)
  %178 = load ptr, ptr %6, align 8
  %179 = load ptr, ptr %11, align 8
  %180 = call ptr @create_index_path(ptr noundef %178, ptr noundef %179, ptr noundef null, ptr noundef null, ptr noundef null, ptr noundef null, i32 noundef 1, i1 noundef zeroext false, ptr noundef null, double noundef 1.000000e+00, i1 noundef zeroext false)
  store ptr %180, ptr %16, align 8
  %181 = getelementptr inbounds nuw %struct.Path, ptr %15, i32 0, i32 11
  %182 = load double, ptr %181, align 8
  %183 = load ptr, ptr %16, align 8
  %184 = getelementptr inbounds nuw %struct.IndexPath, ptr %183, i32 0, i32 0
  %185 = getelementptr inbounds nuw %struct.Path, ptr %184, i32 0, i32 11
  %186 = load double, ptr %185, align 8
  %187 = fcmp olt double %182, %186
  store i1 %187, ptr %3, align 1
  store i32 1, ptr %18, align 4
  br label %188

188:                                              ; preds = %130, %129, %24
  call void @llvm.lifetime.end.p0(i64 8, ptr %17) #8
  call void @llvm.lifetime.end.p0(i64 8, ptr %16) #8
  call void @llvm.lifetime.end.p0(i64 80, ptr %15) #8
  call void @llvm.lifetime.end.p0(i64 8, ptr %14) #8
  call void @llvm.lifetime.end.p0(i64 8, ptr %13) #8
  call void @llvm.lifetime.end.p0(i64 16, ptr %12) #8
  call void @llvm.lifetime.end.p0(i64 8, ptr %11) #8
  call void @llvm.lifetime.end.p0(i64 8, ptr %10) #8
  call void @llvm.lifetime.end.p0(i64 8, ptr %9) #8
  call void @llvm.lifetime.end.p0(i64 8, ptr %8) #8
  call void @llvm.lifetime.end.p0(i64 8, ptr %7) #8
  call void @llvm.lifetime.end.p0(i64 8, ptr %6) #8
  %189 = load i1, ptr %3, align 1
  ret i1 %189
}