; Function Attrs: nounwind uwtable
define dso_local zeroext i1 @plan_cluster_use_sort(i32 noundef %0, i32 noundef %1) local_unnamed_addr #0 {
  %3 = alloca %struct.QualCost, align 8
  %4 = alloca %struct.Path, align 8
  call void @llvm.lifetime.start.p0(i64 16, ptr nonnull %3) #12
  call void @llvm.lifetime.start.p0(i64 80, ptr nonnull %4) #12
  %5 = load i8, ptr @enable_indexscan, align 1, !range !4, !noundef !5
  %6 = trunc nuw i8 %5 to i1
  br i1 %6, label %7, label %.thread60

7:                                                ; preds = %2
  %8 = tail call noundef ptr @palloc0(i64 noundef 280) #12
  store i32 67, ptr %8, align 4
  %9 = getelementptr inbounds nuw i8, ptr %8, i64 4
  store i32 1, ptr %9, align 4
  %10 = tail call noundef ptr @palloc0(i64 noundef 168) #12
  store i32 265, ptr %10, align 4
  %11 = tail call noundef ptr @palloc0(i64 noundef 704) #12
  store i32 266, ptr %11, align 4
  %12 = getelementptr inbounds nuw i8, ptr %11, i64 8
  store ptr %8, ptr %12, align 8
  %13 = getelementptr inbounds nuw i8, ptr %11, i64 16
  store ptr %10, ptr %13, align 8
  %14 = getelementptr inbounds nuw i8, ptr %11, i64 24
  store i32 1, ptr %14, align 8
  %15 = load ptr, ptr @CurrentMemoryContext, align 8
  %16 = getelementptr inbounds nuw i8, ptr %11, i64 560
  store ptr %15, ptr %16, align 8
  %17 = getelementptr inbounds nuw i8, ptr %11, i64 632
  store i32 -1, ptr %17, align 8
  %18 = tail call noundef ptr @palloc0(i64 noundef 16) #12
  store i32 271, ptr %18, align 4
  %19 = tail call ptr @list_make1_impl(i32 noundef 1, ptr nonnull %18) #12
  %20 = getelementptr inbounds nuw i8, ptr %11, i64 168
  store ptr %19, ptr %20, align 8
  %21 = tail call noundef ptr @palloc0(i64 noundef 224) #12
  store i32 101, ptr %21, align 4
  %22 = getelementptr inbounds nuw i8, ptr %21, i64 24
  store i32 0, ptr %22, align 8
  %23 = getelementptr inbounds nuw i8, ptr %21, i64 28
  store i32 %0, ptr %23, align 4
  %24 = getelementptr inbounds nuw i8, ptr %21, i64 33
  store i8 114, ptr %24, align 1
  %25 = getelementptr inbounds nuw i8, ptr %21, i64 36
  store i32 1, ptr %25, align 4
  %26 = getelementptr inbounds nuw i8, ptr %21, i64 208
  store i8 0, ptr %26, align 8
  %27 = getelementptr inbounds nuw i8, ptr %21, i64 32
  store i8 0, ptr %27, align 8
  %28 = getelementptr inbounds nuw i8, ptr %21, i64 209
  store i8 1, ptr %28, align 1
  %29 = tail call ptr @list_make1_impl(i32 noundef 1, ptr nonnull %21) #12
  %30 = getelementptr inbounds nuw i8, ptr %8, i64 64
  store ptr %29, ptr %30, align 8
  %31 = getelementptr inbounds nuw i8, ptr %8, i64 72
  %32 = tail call ptr @addRTEPermissionInfo(ptr noundef nonnull %31, ptr noundef nonnull %21) #12
  tail call void @setup_simple_rel_arrays(ptr noundef nonnull %11) #12
  %33 = tail call ptr @build_simple_rel(ptr noundef nonnull %11, i32 noundef 1, ptr noundef null) #12
  %34 = getelementptr inbounds nuw i8, ptr %33, i64 176
  %35 = load ptr, ptr %34, align 8
  %.not = icmp eq ptr %35, null
  br i1 %.not, label %.thread60, label %.lr.ph

.lr.ph:                                           ; preds = %7
  %36 = getelementptr inbounds nuw i8, ptr %35, i64 4
  %37 = load i32, ptr %36, align 4
  %38 = icmp sgt i32 %37, 0
  br i1 %38, label %.lr.ph66, label %.thread60

.lr.ph66:                                         ; preds = %.lr.ph
  %39 = getelementptr inbounds nuw i8, ptr %35, i64 16
  %40 = load ptr, ptr %39, align 8
  %wide.trip.count = zext nneg i32 %37 to i64
  br label %42

41:                                               ; preds = %42
  %indvars.iv.next = add nuw nsw i64 %indvars.iv, 1
  %exitcond.not = icmp eq i64 %indvars.iv.next, %wide.trip.count
  br i1 %exitcond.not, label %.thread60, label %42

42:                                               ; preds = %.lr.ph66, %41
  %indvars.iv = phi i64 [ 0, %.lr.ph66 ], [ %indvars.iv.next, %41 ]
  %43 = getelementptr inbounds nuw %union.ListCell, ptr %40, i64 %indvars.iv
  %44 = load ptr, ptr %43, align 8
  %45 = getelementptr inbounds nuw i8, ptr %44, i64 4
  %46 = load i32, ptr %45, align 4
  %47 = icmp eq i32 %46, %1
  br i1 %47, label %.split, label %41

.split:                                           ; preds = %42
  %48 = getelementptr inbounds nuw i8, ptr %33, i64 200
  %49 = load double, ptr %48, align 8
  %50 = getelementptr inbounds nuw i8, ptr %33, i64 16
  store double %49, ptr %50, align 8
  %51 = tail call i32 @get_relation_data_width(i32 noundef %0, ptr noundef null) #12
  %52 = getelementptr inbounds nuw i8, ptr %33, i64 32
  %53 = load ptr, ptr %52, align 8
  %54 = getelementptr inbounds nuw i8, ptr %53, i64 40
  store i32 %51, ptr %54, align 8
  %55 = getelementptr inbounds nuw i8, ptr %33, i64 192
  %56 = load i32, ptr %55, align 8
  %57 = uitofp i32 %56 to double
  %58 = getelementptr inbounds nuw i8, ptr %11, i64 568
  store double %57, ptr %58, align 8
  %59 = getelementptr inbounds nuw i8, ptr %44, i64 136
  %60 = load ptr, ptr %59, align 8
  call void @cost_qual_eval(ptr noundef nonnull %3, ptr noundef %60, ptr noundef nonnull %11) #12
  %61 = load double, ptr %3, align 8
  %62 = getelementptr inbounds nuw i8, ptr %3, i64 8
  %63 = load double, ptr %62, align 8
  %64 = fadd double %61, %63
  %65 = fmul double %64, 2.000000e+00
  %66 = call ptr @create_seqscan_path(ptr noundef nonnull %11, ptr noundef %33, ptr noundef null, i32 noundef 0) #12
  %67 = getelementptr inbounds nuw i8, ptr %66, i64 48
  %68 = load i32, ptr %67, align 8
  %69 = getelementptr inbounds nuw i8, ptr %66, i64 64
  %70 = load double, ptr %69, align 8
  %71 = load double, ptr %48, align 8
  %72 = load ptr, ptr %52, align 8
  %73 = getelementptr inbounds nuw i8, ptr %72, i64 40
  %74 = load i32, ptr %73, align 8
  %75 = load i32, ptr @maintenance_work_mem, align 4
  call void @cost_sort(ptr noundef nonnull %4, ptr noundef nonnull %11, ptr noundef null, i32 noundef %68, double noundef %70, double noundef %71, i32 noundef %74, double noundef %65, i32 noundef %75, double noundef -1.000000e+00) #12
  %76 = call ptr @create_index_path(ptr noundef nonnull %11, ptr noundef nonnull %44, ptr noundef null, ptr noundef null, ptr noundef null, ptr noundef null, i32 noundef 1, i1 noundef zeroext false, ptr noundef null, double noundef 1.000000e+00, i1 noundef zeroext false) #12
  %77 = getelementptr inbounds nuw i8, ptr %4, i64 64
  %78 = load double, ptr %77, align 8
  %79 = getelementptr inbounds nuw i8, ptr %76, i64 64
  %80 = load double, ptr %79, align 8
  %81 = fcmp olt double %78, %80
  br label %.thread60

.thread60:                                        ; preds = %41, %7, %.lr.ph, %2, %.split
  %.0 = phi i1 [ %81, %.split ], [ true, %2 ], [ true, %.lr.ph ], [ true, %7 ], [ true, %41 ]
  call void @llvm.lifetime.end.p0(i64 80, ptr nonnull %4) #12
  call void @llvm.lifetime.end.p0(i64 16, ptr nonnull %3) #12
  ret i1 %.0
}